target datalayout = "e-m:e-p270:32:32-p271:32:32-p272:64:64-i64:64-i128:128-f80:128-n8:16:32:64-S128"
target triple = "x86_64-pc-linux-gnu"

%"class.OpenColorIO_v2_5dev::CDLParser" = type { ptr, ptr }

@_ZTVN19OpenColorIO_v2_5dev9CDLParserE = hidden unnamed_addr constant { [4 x ptr] } { [4 x ptr] [ptr null, ptr @_ZTIN19OpenColorIO_v2_5dev9CDLParserE, ptr @_ZN19OpenColorIO_v2_5dev9CDLParserD1Ev, ptr @_ZN19OpenColorIO_v2_5dev9CDLParserD0Ev] }, align 8
@_ZN19OpenColorIO_v2_5dev9CDLParser4ImplC1ERKNSt7__cxx1112basic_stringIcSt11char_traitsIcESaIcEEE = hidden unnamed_addr alias void (ptr, ptr), ptr @_ZN19OpenColorIO_v2_5dev9CDLParser4ImplC2ERKNSt7__cxx1112basic_stringIcSt11char_traitsIcESaIcEEE

; Function Attrs: mustprogress uwtable
define hidden void @_ZN19OpenColorIO_v2_5dev9CDLParserC2ERKNSt7__cxx1112basic_stringIcSt11char_traitsIcESaIcEEE(ptr noundef nonnull align 8 dereferenceable(16) %0, ptr noundef nonnull align 8 dereferenceable(32) %1) unnamed_addr #5 align 2 personality ptr @__gxx_personality_v0 {
  %3 = alloca ptr, align 8
  %4 = alloca ptr, align 8
  %5 = alloca ptr, align 8
  %6 = alloca i32, align 4
  store ptr %0, ptr %3, align 8, !tbaa !174
  store ptr %1, ptr %4, align 8, !tbaa !13
  %7 = load ptr, ptr %3, align 8
  store ptr getelementptr inbounds inrange(-16, 16) ({ [4 x ptr] }, ptr @_ZTVN19OpenColorIO_v2_5dev9CDLParserE, i32 0, i32 0, i32 2), ptr %7, align 8, !tbaa !43
  %8 = getelementptr inbounds nuw %"class.OpenColorIO_v2_5dev::CDLParser", ptr %7, i32 0, i32 1
  %9 = call noalias noundef nonnull ptr @_Znwm(i64 noundef 104) #23
  %10 = load ptr, ptr %4, align 8, !tbaa !13
  invoke void @_ZN19OpenColorIO_v2_5dev9CDLParser4ImplC1ERKNSt7__cxx1112basic_stringIcSt11char_traitsIcESaIcEEE(ptr noundef nonnull align 8 dereferenceable(98) %9, ptr noundef nonnull align 8 dereferenceable(32) %10)
          to label %11 unwind label %12

11:                                               ; preds = %2
  store ptr %9, ptr %8, align 8, !tbaa !176
  ret void

12:                                               ; preds = %2
  %13 = landingpad { ptr, i32 }
          cleanup
  %14 = extractvalue { ptr, i32 } %13, 0
  store ptr %14, ptr %5, align 8
  %15 = extractvalue { ptr, i32 } %13, 1
  store i32 %15, ptr %6, align 4
  call void @_ZdlPvm(ptr noundef %9, i64 noundef 104) #24
  br label %16

16:                                               ; preds = %12
  %17 = load ptr, ptr %5, align 8
  %18 = load i32, ptr %6, align 4
  %19 = insertvalue { ptr, i32 } poison, ptr %17, 0
  %20 = insertvalue { ptr, i32 } %19, i32 %18, 1
  resume { ptr, i32 } %20
}