; Function Attrs: mustprogress uwtable
define hidden void @_ZN19OpenColorIO_v2_5dev9CDLParserC2ERKNSt7__cxx1112basic_stringIcSt11char_traitsIcESaIcEEE(ptr noundef nonnull writeonly align 8 captures(none) dereferenceable(16) initializes((0, 8)) %0, ptr noundef nonnull readonly align 8 captures(none) dereferenceable(32) %1) unnamed_addr #4 align 2 personality ptr @__gxx_personality_v0 {
  store ptr getelementptr inbounds nuw inrange(-16, 16) (i8, ptr @_ZTVN19OpenColorIO_v2_5dev9CDLParserE, i64 16), ptr %0, align 8, !tbaa !40
  %3 = tail call noalias noundef nonnull dereferenceable(104) ptr @_Znwm(i64 noundef 104) #35
  invoke void @_ZN19OpenColorIO_v2_5dev9CDLParser4ImplC2ERKNSt7__cxx1112basic_stringIcSt11char_traitsIcESaIcEEE(ptr noundef nonnull align 8 dereferenceable(98) %3, ptr noundef nonnull align 8 dereferenceable(32) %1)
          to label %4 unwind label %6

4:                                                ; preds = %2
  %5 = getelementptr inbounds nuw i8, ptr %0, i64 8
  store ptr %3, ptr %5, align 8, !tbaa !298
  ret void

6:                                                ; preds = %2
  %7 = landingpad { ptr, i32 }
          cleanup
  tail call void @_ZdlPvm(ptr noundef nonnull %3, i64 noundef 104) #31
  resume { ptr, i32 } %7
}